; Function Attrs: mustprogress nofree norecurse nosync nounwind willreturn memory(read, inaccessiblemem: none) uwtable
define hidden noundef i32 @_ZN1q18get_max_generationEjPKPN3euf5enodeE(i32 noundef %n, ptr nocapture noundef readonly %nodes) local_unnamed_addr #3 {
entry:
  %cmp6.not = icmp eq i32 %n, 0
  br i1 %cmp6.not, label %for.end, label %for.body.preheader

for.body.preheader:                               ; preds = %entry
  %wide.trip.count = zext i32 %n to i64
  br label %for.body

for.body:                                         ; preds = %for.body.preheader, %for.body
  %indvars.iv = phi i64 [ 0, %for.body.preheader ], [ %indvars.iv.next, %for.body ]
  %g.07 = phi i32 [ 0, %for.body.preheader ], [ %.sroa.speculated, %for.body ]
  %arrayidx = getelementptr inbounds ptr, ptr %nodes, i64 %indvars.iv
  %0 = load ptr, ptr %arrayidx, align 8
  %m_generation.i = getelementptr inbounds i8, ptr %0, i64 40
  %1 = load i32, ptr %m_generation.i, align 8
  %.sroa.speculated = tail call i32 @llvm.umax.i32(i32 %g.07, i32 %1)
  %indvars.iv.next = add nuw nsw i64 %indvars.iv, 1
  %exitcond.not = icmp eq i64 %indvars.iv.next, %wide.trip.count
  br i1 %exitcond.not, label %for.end, label %for.body, !llvm.loop !4

for.end:                                          ; preds = %for.body, %entry
  %g.0.lcssa = phi i32 [ 0, %entry ], [ %.sroa.speculated, %for.body ]
  ret i32 %g.0.lcssa
}